target datalayout = "e-m:e-p270:32:32-p271:32:32-p272:64:64-i64:64-i128:128-f80:128-n8:16:32:64-S128"
target triple = "x86_64-pc-linux-gnu"

%struct.mi_os_mem_config_s = type { i64, i64, i64, i64, i64, i8, i8, i8 }

@_ZL16mi_os_mem_config = internal global %struct.mi_os_mem_config_s { i64 4096, i64 0, i64 4096, i64 33554432, i64 48, i8 1, i8 0, i8 1 }, align 8
@.str.164 = private unnamed_addr constant [72 x i8] c"cannot %s OS memory (error: %d (0x%x), address: %p, size: 0x%zx bytes)\0A\00", align 1
@.str.165 = private unnamed_addr constant [8 x i8] c"protect\00", align 1
@.str.166 = private unnamed_addr constant [10 x i8] c"unprotect\00", align 1

; Function Attrs: inlinehint mustprogress nounwind uwtable
define internal noundef i64 @_ZL14_mi_align_downmm(i64 noundef %0, i64 noundef %1) #3 {
  %3 = alloca i64, align 8
  %4 = alloca i64, align 8
  %5 = alloca i64, align 8
  %6 = alloca i64, align 8
  %7 = alloca i32, align 4
  store i64 %0, ptr %4, align 8, !tbaa !18
  store i64 %1, ptr %5, align 8, !tbaa !18
  call void @llvm.lifetime.start.p0(i64 8, ptr %6) #19
  %8 = load i64, ptr %5, align 8, !tbaa !18
  %9 = sub i64 %8, 1
  store i64 %9, ptr %6, align 8, !tbaa !18
  %10 = load i64, ptr %5, align 8, !tbaa !18
  %11 = load i64, ptr %6, align 8, !tbaa !18
  %12 = and i64 %10, %11
  %13 = icmp eq i64 %12, 0
  br i1 %13, label %14, label %19

14:                                               ; preds = %2
  %15 = load i64, ptr %4, align 8, !tbaa !18
  %16 = load i64, ptr %6, align 8, !tbaa !18
  %17 = xor i64 %16, -1
  %18 = and i64 %15, %17
  store i64 %18, ptr %3, align 8
  store i32 1, ptr %7, align 4
  br label %25

19:                                               ; preds = %2
  %20 = load i64, ptr %4, align 8, !tbaa !18
  %21 = load i64, ptr %5, align 8, !tbaa !18
  %22 = udiv i64 %20, %21
  %23 = load i64, ptr %5, align 8, !tbaa !18
  %24 = mul i64 %22, %23
  store i64 %24, ptr %3, align 8
  store i32 1, ptr %7, align 4
  br label %25

25:                                               ; preds = %19, %14
  call void @llvm.lifetime.end.p0(i64 8, ptr %6) #19
  %26 = load i64, ptr %3, align 8
  ret i64 %26
}

; Function Attrs: inlinehint mustprogress nounwind uwtable
define internal noundef i64 @_ZL12_mi_align_upmm(i64 noundef %0, i64 noundef %1) #3 {
  %3 = alloca i64, align 8
  %4 = alloca i64, align 8
  %5 = alloca i64, align 8
  %6 = alloca i64, align 8
  %7 = alloca i32, align 4
  store i64 %0, ptr %4, align 8, !tbaa !18
  store i64 %1, ptr %5, align 8, !tbaa !18
  call void @llvm.lifetime.start.p0(i64 8, ptr %6) #19
  %8 = load i64, ptr %5, align 8, !tbaa !18
  %9 = sub i64 %8, 1
  store i64 %9, ptr %6, align 8, !tbaa !18
  %10 = load i64, ptr %5, align 8, !tbaa !18
  %11 = load i64, ptr %6, align 8, !tbaa !18
  %12 = and i64 %10, %11
  %13 = icmp eq i64 %12, 0
  br i1 %13, label %14, label %21

14:                                               ; preds = %2
  %15 = load i64, ptr %4, align 8, !tbaa !18
  %16 = load i64, ptr %6, align 8, !tbaa !18
  %17 = add i64 %15, %16
  %18 = load i64, ptr %6, align 8, !tbaa !18
  %19 = xor i64 %18, -1
  %20 = and i64 %17, %19
  store i64 %20, ptr %3, align 8
  store i32 1, ptr %7, align 4
  br label %29

21:                                               ; preds = %2
  %22 = load i64, ptr %4, align 8, !tbaa !18
  %23 = load i64, ptr %6, align 8, !tbaa !18
  %24 = add i64 %22, %23
  %25 = load i64, ptr %5, align 8, !tbaa !18
  %26 = udiv i64 %24, %25
  %27 = load i64, ptr %5, align 8, !tbaa !18
  %28 = mul i64 %26, %27
  store i64 %28, ptr %3, align 8
  store i32 1, ptr %7, align 4
  br label %29

29:                                               ; preds = %21, %14
  call void @llvm.lifetime.end.p0(i64 8, ptr %6) #19
  %30 = load i64, ptr %3, align 8
  ret i64 %30
}

; Function Attrs: inlinehint mustprogress uwtable
define internal noundef ptr @_ZL17mi_align_down_ptrPvm(ptr noundef %0, i64 noundef %1) #6 {
  %3 = alloca ptr, align 8
  %4 = alloca i64, align 8
  store ptr %0, ptr %3, align 8, !tbaa !8
  store i64 %1, ptr %4, align 8, !tbaa !18
  %5 = load ptr, ptr %3, align 8, !tbaa !8
  %6 = ptrtoint ptr %5 to i64
  %7 = load i64, ptr %4, align 8, !tbaa !18
  %8 = call noundef i64 @_ZL14_mi_align_downmm(i64 noundef %6, i64 noundef %7)
  %9 = inttoptr i64 %8 to ptr
  ret ptr %9
}

; Function Attrs: inlinehint mustprogress nounwind uwtable
define internal noundef ptr @_ZL15mi_align_up_ptrPvm(ptr noundef %0, i64 noundef %1) #3 {
  %3 = alloca ptr, align 8
  %4 = alloca i64, align 8
  store ptr %0, ptr %3, align 8, !tbaa !8
  store i64 %1, ptr %4, align 8, !tbaa !18
  %5 = load ptr, ptr %3, align 8, !tbaa !8
  %6 = ptrtoint ptr %5 to i64
  %7 = load i64, ptr %4, align 8, !tbaa !18
  %8 = call noundef i64 @_ZL12_mi_align_upmm(i64 noundef %6, i64 noundef %7)
  %9 = inttoptr i64 %8 to ptr
  ret ptr %9
}

; Function Attrs: mustprogress nounwind uwtable
define hidden noundef i64 @_Z16_mi_os_page_sizev() #5 {
  %1 = load i64, ptr @_ZL16mi_os_mem_config, align 8, !tbaa !56
  ret i64 %1
}

; Function Attrs: mustprogress nounwind uwtable
define internal void @_ZL18unix_mprotect_hinti(i32 noundef %0) #5 {
  %2 = alloca i32, align 4
  store i32 %0, ptr %2, align 4, !tbaa !58
  ret void
}

; Function Attrs: mustprogress uwtable
define internal noundef ptr @_ZL22mi_os_page_align_areaxbPvmPm(i1 noundef zeroext %0, ptr noundef %1, i64 noundef %2, ptr noundef %3) #0 {
  %5 = alloca ptr, align 8
  %6 = alloca i8, align 1
  %7 = alloca ptr, align 8
  %8 = alloca i64, align 8
  %9 = alloca ptr, align 8
  %10 = alloca ptr, align 8
  %11 = alloca ptr, align 8
  %12 = alloca i64, align 8
  %13 = alloca i32, align 4
  %14 = zext i1 %0 to i8
  store i8 %14, ptr %6, align 1, !tbaa !23
  store ptr %1, ptr %7, align 8, !tbaa !8
  store i64 %2, ptr %8, align 8, !tbaa !18
  store ptr %3, ptr %9, align 8, !tbaa !46
  %15 = load ptr, ptr %9, align 8, !tbaa !46
  %16 = icmp ne ptr %15, null
  br i1 %16, label %17, label %19

17:                                               ; preds = %4
  %18 = load ptr, ptr %9, align 8, !tbaa !46
  store i64 0, ptr %18, align 8, !tbaa !18
  br label %19

19:                                               ; preds = %17, %4
  %20 = load i64, ptr %8, align 8, !tbaa !18
  %21 = icmp eq i64 %20, 0
  br i1 %21, label %25, label %22

22:                                               ; preds = %19
  %23 = load ptr, ptr %7, align 8, !tbaa !8
  %24 = icmp eq ptr %23, null
  br i1 %24, label %25, label %26

25:                                               ; preds = %22, %19
  store ptr null, ptr %5, align 8
  br label %72

26:                                               ; preds = %22
  call void @llvm.lifetime.start.p0(i64 8, ptr %10) #19
  %27 = load i8, ptr %6, align 1, !tbaa !23, !range !25, !noundef !26
  %28 = trunc i8 %27 to i1
  br i1 %28, label %29, label %33

29:                                               ; preds = %26
  %30 = load ptr, ptr %7, align 8, !tbaa !8
  %31 = call noundef i64 @_Z16_mi_os_page_sizev()
  %32 = call noundef ptr @_ZL15mi_align_up_ptrPvm(ptr noundef %30, i64 noundef %31)
  br label %37

33:                                               ; preds = %26
  %34 = load ptr, ptr %7, align 8, !tbaa !8
  %35 = call noundef i64 @_Z16_mi_os_page_sizev()
  %36 = call noundef ptr @_ZL17mi_align_down_ptrPvm(ptr noundef %34, i64 noundef %35)
  br label %37

37:                                               ; preds = %33, %29
  %38 = phi ptr [ %32, %29 ], [ %36, %33 ]
  store ptr %38, ptr %10, align 8, !tbaa !8
  call void @llvm.lifetime.start.p0(i64 8, ptr %11) #19
  %39 = load i8, ptr %6, align 1, !tbaa !23, !range !25, !noundef !26
  %40 = trunc i8 %39 to i1
  br i1 %40, label %41, label %47

41:                                               ; preds = %37
  %42 = load ptr, ptr %7, align 8, !tbaa !8
  %43 = load i64, ptr %8, align 8, !tbaa !18
  %44 = getelementptr inbounds nuw i8, ptr %42, i64 %43
  %45 = call noundef i64 @_Z16_mi_os_page_sizev()
  %46 = call noundef ptr @_ZL17mi_align_down_ptrPvm(ptr noundef %44, i64 noundef %45)
  br label %53

47:                                               ; preds = %37
  %48 = load ptr, ptr %7, align 8, !tbaa !8
  %49 = load i64, ptr %8, align 8, !tbaa !18
  %50 = getelementptr inbounds nuw i8, ptr %48, i64 %49
  %51 = call noundef i64 @_Z16_mi_os_page_sizev()
  %52 = call noundef ptr @_ZL15mi_align_up_ptrPvm(ptr noundef %50, i64 noundef %51)
  br label %53

53:                                               ; preds = %47, %41
  %54 = phi ptr [ %46, %41 ], [ %52, %47 ]
  store ptr %54, ptr %11, align 8, !tbaa !8
  call void @llvm.lifetime.start.p0(i64 8, ptr %12) #19
  %55 = load ptr, ptr %11, align 8, !tbaa !8
  %56 = load ptr, ptr %10, align 8, !tbaa !8
  %57 = ptrtoint ptr %55 to i64
  %58 = ptrtoint ptr %56 to i64
  %59 = sub i64 %57, %58
  store i64 %59, ptr %12, align 8, !tbaa !18
  %60 = load i64, ptr %12, align 8, !tbaa !18
  %61 = icmp sle i64 %60, 0
  br i1 %61, label %62, label %63

62:                                               ; preds = %53
  store ptr null, ptr %5, align 8
  store i32 1, ptr %13, align 4
  br label %71

63:                                               ; preds = %53
  %64 = load ptr, ptr %9, align 8, !tbaa !46
  %65 = icmp ne ptr %64, null
  br i1 %65, label %66, label %69

66:                                               ; preds = %63
  %67 = load i64, ptr %12, align 8, !tbaa !18
  %68 = load ptr, ptr %9, align 8, !tbaa !46
  store i64 %67, ptr %68, align 8, !tbaa !18
  br label %69

69:                                               ; preds = %66, %63
  %70 = load ptr, ptr %10, align 8, !tbaa !8
  store ptr %70, ptr %5, align 8
  store i32 1, ptr %13, align 4
  br label %71

71:                                               ; preds = %69, %62
  call void @llvm.lifetime.end.p0(i64 8, ptr %12) #19
  call void @llvm.lifetime.end.p0(i64 8, ptr %11) #19
  call void @llvm.lifetime.end.p0(i64 8, ptr %10) #19
  br label %72

72:                                               ; preds = %71, %25
  %73 = load ptr, ptr %5, align 8
  ret ptr %73
}

; Function Attrs: mustprogress uwtable
define hidden noundef i32 @_Z16_mi_prim_protectPvmb(ptr noundef %0, i64 noundef %1, i1 noundef zeroext %2) #0 {
  %4 = alloca ptr, align 8
  %5 = alloca i64, align 8
  %6 = alloca i8, align 1
  %7 = alloca i32, align 4
  store ptr %0, ptr %4, align 8, !tbaa !8
  store i64 %1, ptr %5, align 8, !tbaa !18
  %8 = zext i1 %2 to i8
  store i8 %8, ptr %6, align 1, !tbaa !23
  call void @llvm.lifetime.start.p0(i64 4, ptr %7) #19
  %9 = load ptr, ptr %4, align 8, !tbaa !8
  %10 = load i64, ptr %5, align 8, !tbaa !18
  %11 = load i8, ptr %6, align 1, !tbaa !23, !range !25, !noundef !26
  %12 = trunc i8 %11 to i1
  %13 = select i1 %12, i32 0, i32 3
  %14 = call i32 @mprotect(ptr noundef %9, i64 noundef %10, i32 noundef %13) #19
  store i32 %14, ptr %7, align 4, !tbaa !58
  %15 = load i32, ptr %7, align 4, !tbaa !58
  %16 = icmp ne i32 %15, 0
  br i1 %16, label %17, label %20

17:                                               ; preds = %3
  %18 = call ptr @__errno_location() #22
  %19 = load i32, ptr %18, align 4, !tbaa !58
  store i32 %19, ptr %7, align 4, !tbaa !58
  br label %20

20:                                               ; preds = %17, %3
  %21 = load i32, ptr %7, align 4, !tbaa !58
  call void @_ZL18unix_mprotect_hinti(i32 noundef %21)
  %22 = load i32, ptr %7, align 4, !tbaa !58
  call void @llvm.lifetime.end.p0(i64 4, ptr %7) #19
  ret i32 %22
}

; Function Attrs: mustprogress uwtable
define internal noundef ptr @_ZL34mi_os_page_align_area_conservativePvmPm(ptr noundef %0, i64 noundef %1, ptr noundef %2) #0 {
  %4 = alloca ptr, align 8
  %5 = alloca i64, align 8
  %6 = alloca ptr, align 8
  store ptr %0, ptr %4, align 8, !tbaa !8
  store i64 %1, ptr %5, align 8, !tbaa !18
  store ptr %2, ptr %6, align 8, !tbaa !46
  %7 = load ptr, ptr %4, align 8, !tbaa !8
  %8 = load i64, ptr %5, align 8, !tbaa !18
  %9 = load ptr, ptr %6, align 8, !tbaa !46
  %10 = call noundef ptr @_ZL22mi_os_page_align_areaxbPvmPm(i1 noundef zeroext true, ptr noundef %7, i64 noundef %8, ptr noundef %9)
  ret ptr %10
}

; Function Attrs: mustprogress uwtable
define internal noundef zeroext i1 @_ZL14mi_os_protectxPvmb(ptr noundef %0, i64 noundef %1, i1 noundef zeroext %2) #0 {
  %4 = alloca i1, align 1
  %5 = alloca ptr, align 8
  %6 = alloca i64, align 8
  %7 = alloca i8, align 1
  %8 = alloca i64, align 8
  %9 = alloca ptr, align 8
  %10 = alloca i32, align 4
  %11 = alloca i32, align 4
  store ptr %0, ptr %5, align 8, !tbaa !8
  store i64 %1, ptr %6, align 8, !tbaa !18
  %12 = zext i1 %2 to i8
  store i8 %12, ptr %7, align 1, !tbaa !23
  call void @llvm.lifetime.start.p0(i64 8, ptr %8) #19
  store i64 0, ptr %8, align 8, !tbaa !18
  call void @llvm.lifetime.start.p0(i64 8, ptr %9) #19
  %13 = load ptr, ptr %5, align 8, !tbaa !8
  %14 = load i64, ptr %6, align 8, !tbaa !18
  %15 = call noundef ptr @_ZL34mi_os_page_align_area_conservativePvmPm(ptr noundef %13, i64 noundef %14, ptr noundef %8)
  store ptr %15, ptr %9, align 8, !tbaa !8
  %16 = load i64, ptr %8, align 8, !tbaa !18
  %17 = icmp eq i64 %16, 0
  br i1 %17, label %18, label %19

18:                                               ; preds = %3
  store i1 false, ptr %4, align 1
  store i32 1, ptr %10, align 4
  br label %38

19:                                               ; preds = %3
  call void @llvm.lifetime.start.p0(i64 4, ptr %11) #19
  %20 = load ptr, ptr %9, align 8, !tbaa !8
  %21 = load i64, ptr %8, align 8, !tbaa !18
  %22 = load i8, ptr %7, align 1, !tbaa !23, !range !25, !noundef !26
  %23 = trunc i8 %22 to i1
  %24 = call noundef i32 @_Z16_mi_prim_protectPvmb(ptr noundef %20, i64 noundef %21, i1 noundef zeroext %23)
  store i32 %24, ptr %11, align 4, !tbaa !58
  %25 = load i32, ptr %11, align 4, !tbaa !58
  %26 = icmp ne i32 %25, 0
  br i1 %26, label %27, label %35

27:                                               ; preds = %19
  %28 = load i8, ptr %7, align 1, !tbaa !23, !range !25, !noundef !26
  %29 = trunc i8 %28 to i1
  %30 = select i1 %29, ptr @.str.165, ptr @.str.166
  %31 = load i32, ptr %11, align 4, !tbaa !58
  %32 = load i32, ptr %11, align 4, !tbaa !58
  %33 = load ptr, ptr %9, align 8, !tbaa !8
  %34 = load i64, ptr %8, align 8, !tbaa !18
  call void (ptr, ...) @_Z19_mi_warning_messagePKcz(ptr noundef @.str.164, ptr noundef %30, i32 noundef %31, i32 noundef %32, ptr noundef %33, i64 noundef %34)
  br label %35

35:                                               ; preds = %27, %19
  %36 = load i32, ptr %11, align 4, !tbaa !58
  %37 = icmp eq i32 %36, 0
  store i1 %37, ptr %4, align 1
  store i32 1, ptr %10, align 4
  call void @llvm.lifetime.end.p0(i64 4, ptr %11) #19
  br label %38

38:                                               ; preds = %35, %18
  call void @llvm.lifetime.end.p0(i64 8, ptr %9) #19
  call void @llvm.lifetime.end.p0(i64 8, ptr %8) #19
  %39 = load i1, ptr %4, align 1
  ret i1 %39
}

; Function Attrs: mustprogress uwtable
define hidden noundef zeroext i1 @_Z14_mi_os_protectPvm(ptr noundef %0, i64 noundef %1) #0 {
  %3 = alloca ptr, align 8
  %4 = alloca i64, align 8
  store ptr %0, ptr %3, align 8, !tbaa !8
  store i64 %1, ptr %4, align 8, !tbaa !18
  %5 = load ptr, ptr %3, align 8, !tbaa !8
  %6 = load i64, ptr %4, align 8, !tbaa !18
  %7 = call noundef zeroext i1 @_ZL14mi_os_protectxPvmb(ptr noundef %5, i64 noundef %6, i1 noundef zeroext true)
  ret i1 %7
}