; Function Attrs: mustprogress uwtable
define hidden noundef zeroext i1 @_Z14_mi_os_protectPvm(ptr noundef %0, i64 noundef %1) local_unnamed_addr #6 {
  %3 = icmp eq i64 %1, 0
  %4 = icmp eq ptr %0, null
  %or.cond.i.i.i = or i1 %4, %3
  br i1 %or.cond.i.i.i, label %_ZL14mi_os_protectxPvmb.exit, label %5

5:                                                ; preds = %2
  %6 = load i64, ptr @_ZL16mi_os_mem_config, align 8, !tbaa !62
  %7 = ptrtoint ptr %0 to i64
  %8 = tail call range(i64 0, 65) i64 @llvm.ctpop.i64(i64 %6)
  %9 = icmp samesign ult i64 %8, 2
  %10 = add i64 %7, -1
  %11 = add i64 %10, %6
  %12 = getelementptr inbounds nuw i8, ptr %0, i64 %1
  %13 = ptrtoint ptr %12 to i64
  br i1 %9, label %14, label %18

14:                                               ; preds = %5
  %15 = sub i64 0, %6
  %16 = and i64 %11, %15
  %17 = and i64 %15, %13
  br label %_ZL17mi_align_down_ptrPvm.exit27.i.i.i

18:                                               ; preds = %5
  %19 = urem i64 %11, %6
  %20 = sub nuw i64 %11, %19
  %21 = urem i64 %13, %6
  %22 = sub nuw i64 %13, %21
  br label %_ZL17mi_align_down_ptrPvm.exit27.i.i.i

_ZL17mi_align_down_ptrPvm.exit27.i.i.i:           ; preds = %18, %14
  %.in.i.i.i = phi i64 [ %16, %14 ], [ %20, %18 ]
  %.in30.i.i.i = phi i64 [ %17, %14 ], [ %22, %18 ]
  %23 = sub i64 %.in30.i.i.i, %.in.i.i.i
  %24 = icmp slt i64 %23, 1
  br i1 %24, label %_ZL14mi_os_protectxPvmb.exit, label %25

25:                                               ; preds = %_ZL17mi_align_down_ptrPvm.exit27.i.i.i
  %26 = inttoptr i64 %.in.i.i.i to ptr
  %27 = tail call i32 @mprotect(ptr noundef %26, i64 noundef %23, i32 noundef 0) #55
  %.not.i.i = icmp eq i32 %27, 0
  br i1 %.not.i.i, label %_ZL14mi_os_protectxPvmb.exit, label %_Z16_mi_prim_protectPvmb.exit.i

_Z16_mi_prim_protectPvmb.exit.i:                  ; preds = %25
  %28 = tail call ptr @__errno_location() #59
  %29 = load i32, ptr %28, align 4, !tbaa !66
  %.not.i = icmp eq i32 %29, 0
  br i1 %.not.i, label %_ZL14mi_os_protectxPvmb.exit, label %30

30:                                               ; preds = %_Z16_mi_prim_protectPvmb.exit.i
  tail call void (ptr, ...) @_Z19_mi_warning_messagePKcz(ptr noundef nonnull @.str.164, ptr noundef nonnull @.str.165, i32 noundef %29, i32 noundef %29, ptr noundef %26, i64 noundef %23)
  br label %_ZL14mi_os_protectxPvmb.exit

_ZL14mi_os_protectxPvmb.exit:                     ; preds = %2, %_ZL17mi_align_down_ptrPvm.exit27.i.i.i, %25, %_Z16_mi_prim_protectPvmb.exit.i, %30
  %.0.i = phi i1 [ false, %30 ], [ true, %_Z16_mi_prim_protectPvmb.exit.i ], [ false, %2 ], [ false, %_ZL17mi_align_down_ptrPvm.exit27.i.i.i ], [ true, %25 ]
  ret i1 %.0.i
}